; ModuleID = '7/266.c'
source_filename = "7/266.c"
target datalayout = "e-m:e-p270:32:32-p271:32:32-p272:64:64-i64:64-f80:128-n8:16:32:64-S128"
target triple = "x86_64-pc-linux-gnu"

@.str = private unnamed_addr constant [9 x i8] c"%s %s %s\00", align 1
@.str.1 = private unnamed_addr constant [4 x i8] c"%s\0A\00", align 1
@.str.2 = private unnamed_addr constant [3 x i8] c"%c\00", align 1
@.str.3 = private unnamed_addr constant [3 x i8] c"%s\00", align 1
@.str.4 = private unnamed_addr constant [2 x i8] c"\0A\00", align 1

; Function Attrs: noinline nounwind uwtable
define dso_local i32 @main() #0 {
  %1 = alloca i32, align 4
  %2 = alloca i32, align 4
  %3 = alloca i32, align 4
  %4 = alloca i32, align 4
  %5 = alloca i32, align 4
  %6 = alloca i32, align 4
  %7 = alloca [300 x i8], align 16
  %8 = alloca [300 x i8], align 16
  %9 = alloca [300 x i8], align 16
  store i32 0, i32* %1, align 4
  %10 = getelementptr inbounds [300 x i8], [300 x i8]* %7, i64 0, i64 0
  %11 = getelementptr inbounds [300 x i8], [300 x i8]* %8, i64 0, i64 0
  %12 = getelementptr inbounds [300 x i8], [300 x i8]* %9, i64 0, i64 0
  %13 = call i32 (i8*, ...) @__isoc99_scanf(i8* getelementptr inbounds ([9 x i8], [9 x i8]* @.str, i64 0, i64 0), i8* %10, i8* %11, i8* %12)
  %14 = getelementptr inbounds [300 x i8], [300 x i8]* %7, i64 0, i64 0
  %15 = call i64 @strlen(i8* %14) #3
  %16 = trunc i64 %15 to i32
  store i32 %16, i32* %5, align 4
  %17 = getelementptr inbounds [300 x i8], [300 x i8]* %8, i64 0, i64 0
  %18 = call i64 @strlen(i8* %17) #3
  %19 = trunc i64 %18 to i32
  store i32 %19, i32* %4, align 4
  store i32 0, i32* %2, align 4
  br label %20

20:                                               ; preds = %68, %0
  %21 = load i32, i32* %2, align 4
  %22 = load i32, i32* %5, align 4
  %23 = icmp slt i32 %21, %22
  br i1 %23, label %24, label %71

24:                                               ; preds = %20
  store i32 0, i32* %3, align 4
  br label %25

25:                                               ; preds = %45, %24
  %26 = load i32, i32* %3, align 4
  %27 = load i32, i32* %4, align 4
  %28 = icmp slt i32 %26, %27
  br i1 %28, label %29, label %48

29:                                               ; preds = %25
  %30 = load i32, i32* %3, align 4
  %31 = sext i32 %30 to i64
  %32 = getelementptr inbounds [300 x i8], [300 x i8]* %8, i64 0, i64 %31
  %33 = load i8, i8* %32, align 1
  %34 = sext i8 %33 to i32
  %35 = load i32, i32* %2, align 4
  %36 = load i32, i32* %3, align 4
  %37 = add nsw i32 %35, %36
  %38 = sext i32 %37 to i64
  %39 = getelementptr inbounds [300 x i8], [300 x i8]* %7, i64 0, i64 %38
  %40 = load i8, i8* %39, align 1
  %41 = sext i8 %40 to i32
  %42 = icmp ne i32 %34, %41
  br i1 %42, label %43, label %44

43:                                               ; preds = %29
  br label %48

44:                                               ; preds = %29
  br label %45

45:                                               ; preds = %44
  %46 = load i32, i32* %3, align 4
  %47 = add nsw i32 %46, 1
  store i32 %47, i32* %3, align 4
  br label %25

48:                                               ; preds = %43, %25
  %49 = load i32, i32* %3, align 4
  %50 = load i32, i32* %4, align 4
  %51 = icmp eq i32 %49, %50
  br i1 %51, label %52, label %67

52:                                               ; preds = %48
  store i32 0, i32* %3, align 4
  br label %53

53:                                               ; preds = %63, %52
  %54 = load i32, i32* %3, align 4
  %55 = load i32, i32* %4, align 4
  %56 = icmp slt i32 %54, %55
  br i1 %56, label %57, label %66

57:                                               ; preds = %53
  %58 = load i32, i32* %2, align 4
  %59 = load i32, i32* %3, align 4
  %60 = add nsw i32 %58, %59
  %61 = sext i32 %60 to i64
  %62 = getelementptr inbounds [300 x i8], [300 x i8]* %7, i64 0, i64 %61
  store i8 0, i8* %62, align 1
  br label %63

63:                                               ; preds = %57
  %64 = load i32, i32* %3, align 4
  %65 = add nsw i32 %64, 1
  store i32 %65, i32* %3, align 4
  br label %53

66:                                               ; preds = %53
  br label %71

67:                                               ; preds = %48
  br label %68

68:                                               ; preds = %67
  %69 = load i32, i32* %2, align 4
  %70 = add nsw i32 %69, 1
  store i32 %70, i32* %2, align 4
  br label %20

71:                                               ; preds = %66, %20
  %72 = load i32, i32* %3, align 4
  %73 = load i32, i32* %4, align 4
  %74 = icmp ne i32 %72, %73
  br i1 %74, label %75, label %78

75:                                               ; preds = %71
  %76 = getelementptr inbounds [300 x i8], [300 x i8]* %7, i64 0, i64 0
  %77 = call i32 (i8*, ...) @printf(i8* getelementptr inbounds ([4 x i8], [4 x i8]* @.str.1, i64 0, i64 0), i8* %76)
  store i32 0, i32* %1, align 4
  br label %135

78:                                               ; preds = %71
  store i32 0, i32* %2, align 4
  br label %79

79:                                               ; preds = %109, %78
  %80 = load i32, i32* %2, align 4
  %81 = load i32, i32* %5, align 4
  %82 = icmp slt i32 %80, %81
  br i1 %82, label %83, label %112

83:                                               ; preds = %79
  %84 = load i32, i32* %2, align 4
  %85 = sext i32 %84 to i64
  %86 = getelementptr inbounds [300 x i8], [300 x i8]* %7, i64 0, i64 %85
  %87 = load i8, i8* %86, align 1
  %88 = sext i8 %87 to i32
  %89 = icmp ne i32 %88, 0
  br i1 %89, label %90, label %97

90:                                               ; preds = %83
  %91 = load i32, i32* %2, align 4
  %92 = sext i32 %91 to i64
  %93 = getelementptr inbounds [300 x i8], [300 x i8]* %7, i64 0, i64 %92
  %94 = load i8, i8* %93, align 1
  %95 = sext i8 %94 to i32
  %96 = call i32 (i8*, ...) @printf(i8* getelementptr inbounds ([3 x i8], [3 x i8]* @.str.2, i64 0, i64 0), i32 %95)
  br label %97

97:                                               ; preds = %90, %83
  %98 = load i32, i32* %2, align 4
  %99 = sext i32 %98 to i64
  %100 = getelementptr inbounds [300 x i8], [300 x i8]* %7, i64 0, i64 %99
  %101 = load i8, i8* %100, align 1
  %102 = sext i8 %101 to i32
  %103 = icmp eq i32 %102, 0
  br i1 %103, label %104, label %108

104:                                              ; preds = %97
  %105 = load i32, i32* %2, align 4
  store i32 %105, i32* %6, align 4
  %106 = getelementptr inbounds [300 x i8], [300 x i8]* %9, i64 0, i64 0
  %107 = call i32 (i8*, ...) @printf(i8* getelementptr inbounds ([3 x i8], [3 x i8]* @.str.3, i64 0, i64 0), i8* %106)
  br label %112

108:                                              ; preds = %97
  br label %109

109:                                              ; preds = %108
  %110 = load i32, i32* %2, align 4
  %111 = add nsw i32 %110, 1
  store i32 %111, i32* %2, align 4
  br label %79

112:                                              ; preds = %104, %79
  %113 = load i32, i32* %6, align 4
  %114 = load i32, i32* %4, align 4
  %115 = add nsw i32 %113, %114
  store i32 %115, i32* %3, align 4
  br label %116

116:                                              ; preds = %130, %112
  %117 = load i32, i32* %3, align 4
  %118 = sext i32 %117 to i64
  %119 = getelementptr inbounds [300 x i8], [300 x i8]* %7, i64 0, i64 %118
  %120 = load i8, i8* %119, align 1
  %121 = call i32 @func(i8 signext %120)
  %122 = icmp ne i32 %121, 0
  br i1 %122, label %123, label %133

123:                                              ; preds = %116
  %124 = load i32, i32* %3, align 4
  %125 = sext i32 %124 to i64
  %126 = getelementptr inbounds [300 x i8], [300 x i8]* %7, i64 0, i64 %125
  %127 = load i8, i8* %126, align 1
  %128 = sext i8 %127 to i32
  %129 = call i32 (i8*, ...) @printf(i8* getelementptr inbounds ([3 x i8], [3 x i8]* @.str.2, i64 0, i64 0), i32 %128)
  br label %130

130:                                              ; preds = %123
  %131 = load i32, i32* %3, align 4
  %132 = add nsw i32 %131, 1
  store i32 %132, i32* %3, align 4
  br label %116

133:                                              ; preds = %116
  %134 = call i32 (i8*, ...) @printf(i8* getelementptr inbounds ([2 x i8], [2 x i8]* @.str.4, i64 0, i64 0))
  store i32 0, i32* %1, align 4
  br label %135

135:                                              ; preds = %133, %75
  %136 = load i32, i32* %1, align 4
  ret i32 %136
}

declare dso_local i32 @__isoc99_scanf(i8*, ...) #1

; Function Attrs: nounwind readonly
declare dso_local i64 @strlen(i8*) #2

declare dso_local i32 @printf(i8*, ...) #1

; Function Attrs: noinline nounwind uwtable
define dso_local i32 @func(i8 signext %0) #0 {
  %2 = alloca i32, align 4
  %3 = alloca i8, align 1
  store i8 %0, i8* %3, align 1
  %4 = load i8, i8* %3, align 1
  %5 = sext i8 %4 to i32
  %6 = icmp eq i32 %5, 0
  br i1 %6, label %7, label %8

7:                                                ; preds = %1
  store i32 0, i32* %2, align 4
  br label %9

8:                                                ; preds = %1
  store i32 1, i32* %2, align 4
  br label %9

9:                                                ; preds = %8, %7
  %10 = load i32, i32* %2, align 4
  ret i32 %10
}


!llvm.module.flags = !{!0}
!llvm.ident = !{!1}

!0 = !{i32 1, !"wchar_size", i32 4}
!1 = !{!"clang version 10.0.0-4ubuntu1 "}
